; Function Attrs: mustprogress uwtable
define hidden noundef i32 @_ZNK3smt9theory_pb5arg_t8get_hashEv(ptr noundef nonnull align 8 dereferenceable(40) %0) local_unnamed_addr #4 align 2 personality ptr @__gxx_personality_v0 {
  %2 = alloca %"struct.smt::theory_pb::arg_t", align 8
  %3 = alloca %"struct.smt::theory_pb::arg_t::kind_hash", align 1
  %4 = alloca %"struct.smt::theory_pb::arg_t::child_hash", align 1
  call void @_ZN3smt9theory_pb5arg_tC2ERKS1_(ptr noundef nonnull align 8 dereferenceable(40) %2, ptr noundef nonnull align 8 dereferenceable(40) %0)
  %5 = load ptr, ptr %0, align 8, !tbaa !3
  %6 = icmp eq ptr %5, null
  br i1 %6, label %_ZNK6vectorISt4pairIN3sat7literalE8rationalELb1EjE4sizeEv.exit, label %7

7:                                                ; preds = %1
  %8 = getelementptr inbounds i8, ptr %5, i64 -4
  %9 = load i32, ptr %8, align 4, !tbaa !9
  br label %_ZNK6vectorISt4pairIN3sat7literalE8rationalELb1EjE4sizeEv.exit

_ZNK6vectorISt4pairIN3sat7literalE8rationalELb1EjE4sizeEv.exit: ; preds = %1, %7
  %.0.i = phi i32 [ %9, %7 ], [ 0, %1 ]
  call void @llvm.lifetime.start.p0(i64 1, ptr nonnull %3) #30
  call void @llvm.lifetime.start.p0(i64 1, ptr nonnull %4) #30
  %10 = invoke noundef i32 @_Z18get_composite_hashIN3smt9theory_pb5arg_tENS2_9kind_hashENS2_10child_hashEEjT_jRKT0_RKT1_(ptr noundef nonnull %2, i32 noundef %.0.i, ptr noundef nonnull align 1 dereferenceable(1) %3, ptr noundef nonnull align 1 dereferenceable(1) %4)
          to label %11 unwind label %12

11:                                               ; preds = %_ZNK6vectorISt4pairIN3sat7literalE8rationalELb1EjE4sizeEv.exit
  call void @llvm.lifetime.end.p0(i64 1, ptr nonnull %4) #30
  call void @llvm.lifetime.end.p0(i64 1, ptr nonnull %3) #30
  call void @_ZN3smt9theory_pb5arg_tD2Ev(ptr noundef nonnull align 8 dereferenceable(40) %2) #30
  ret i32 %10

12:                                               ; preds = %_ZNK6vectorISt4pairIN3sat7literalE8rationalELb1EjE4sizeEv.exit
  %13 = landingpad { ptr, i32 }
          cleanup
  call void @llvm.lifetime.end.p0(i64 1, ptr nonnull %4) #30
  call void @llvm.lifetime.end.p0(i64 1, ptr nonnull %3) #30
  call void @_ZN3smt9theory_pb5arg_tD2Ev(ptr noundef nonnull align 8 dereferenceable(40) %2) #30
  resume { ptr, i32 } %13
}